target datalayout = "e-m:e-p270:32:32-p271:32:32-p272:64:64-i64:64-i128:128-f80:128-n8:16:32:64-S128"
target triple = "x86_64-pc-linux-gnu"

%"class.std::__cxx11::basic_string" = type { %"struct.std::__cxx11::basic_string<char>::_Alloc_hider", i64, %union.anon.5 }
%"struct.std::__cxx11::basic_string<char>::_Alloc_hider" = type { ptr }
%union.anon.5 = type { i64, [8 x i8] }
%"struct.std::pair.99" = type { %"class.std::__cxx11::basic_string", %"class.std::__cxx11::basic_string" }
%"struct.std::pair.101" = type { ptr, ptr }

@common_log_verbosity_thold = external global i32, align 4
@.str.9 = private unnamed_addr constant [1 x i8] zeroinitializer, align 1
@.str.66 = private unnamed_addr constant [83 x i8] c"%s: llama.cpp built without libcurl, downloading from Hugging Face not supported.\0A\00", align 1
@__func__._Z18common_get_hf_fileRKNSt7__cxx1112basic_stringIcSt11char_traitsIcESaIcEEES6_ = private unnamed_addr constant [19 x i8] c"common_get_hf_file\00", align 1

; Function Attrs: mustprogress nounwind uwtable
define linkonce_odr void @_ZNSt4pairIPKcS1_EC2IS1_S1_TnNSt9enable_ifIXaaclsr5_PCCPE18_ConstructiblePairIT_T0_EEclsr5_PCCPE26_ImplicitlyConvertiblePairIS5_S6_EEEbE4typeELb1EEERKS1_SA_(ptr noundef nonnull align 8 dereferenceable(16) %0, ptr noundef nonnull align 8 dereferenceable(8) %1, ptr noundef nonnull align 8 dereferenceable(8) %2) unnamed_addr #6 comdat align 2 {
  %4 = alloca ptr, align 8
  %5 = alloca ptr, align 8
  %6 = alloca ptr, align 8
  store ptr %0, ptr %4, align 8, !tbaa !376
  store ptr %1, ptr %5, align 8, !tbaa !623
  store ptr %2, ptr %6, align 8, !tbaa !623
  %7 = load ptr, ptr %4, align 8
  %8 = getelementptr inbounds nuw %"struct.std::pair.101", ptr %7, i32 0, i32 0
  %9 = load ptr, ptr %5, align 8, !tbaa !623
  %10 = load ptr, ptr %9, align 8, !tbaa !16
  store ptr %10, ptr %8, align 8, !tbaa !625
  %11 = getelementptr inbounds nuw %"struct.std::pair.101", ptr %7, i32 0, i32 1
  %12 = load ptr, ptr %6, align 8, !tbaa !623
  %13 = load ptr, ptr %12, align 8, !tbaa !16
  store ptr %13, ptr %11, align 8, !tbaa !627
  ret void
}

; Function Attrs: mustprogress uwtable
define linkonce_odr { ptr, ptr } @_ZSt9make_pairIRA1_KcS2_ESt4pairINSt25__strip_reference_wrapperINSt5decayIT_E4typeEE6__typeENS4_INS5_IT0_E4typeEE6__typeEEOS6_OSB_(ptr noundef nonnull align 1 dereferenceable(1) %0, ptr noundef nonnull align 1 dereferenceable(1) %1) #4 comdat {
  %3 = alloca %"struct.std::pair.101", align 8
  %4 = alloca ptr, align 8
  %5 = alloca ptr, align 8
  %6 = alloca ptr, align 8
  %7 = alloca ptr, align 8
  store ptr %0, ptr %4, align 8, !tbaa !16
  store ptr %1, ptr %5, align 8, !tbaa !16
  call void @llvm.lifetime.start.p0(i64 8, ptr %6) #3
  %8 = load ptr, ptr %4, align 8, !tbaa !16
  %9 = getelementptr inbounds [1 x i8], ptr %8, i64 0, i64 0
  store ptr %9, ptr %6, align 8, !tbaa !16
  call void @llvm.lifetime.start.p0(i64 8, ptr %7) #3
  %10 = load ptr, ptr %5, align 8, !tbaa !16
  %11 = getelementptr inbounds [1 x i8], ptr %10, i64 0, i64 0
  store ptr %11, ptr %7, align 8, !tbaa !16
  call void @_ZNSt4pairIPKcS1_EC2IS1_S1_TnNSt9enable_ifIXaaclsr5_PCCPE18_ConstructiblePairIT_T0_EEclsr5_PCCPE26_ImplicitlyConvertiblePairIS5_S6_EEEbE4typeELb1EEERKS1_SA_(ptr noundef nonnull align 8 dereferenceable(16) %3, ptr noundef nonnull align 8 dereferenceable(8) %6, ptr noundef nonnull align 8 dereferenceable(8) %7)
  call void @llvm.lifetime.end.p0(i64 8, ptr %7) #3
  call void @llvm.lifetime.end.p0(i64 8, ptr %6) #3
  %12 = load { ptr, ptr }, ptr %3, align 8
  ret { ptr, ptr } %12
}

; Function Attrs: mustprogress uwtable
define void @_Z18common_get_hf_fileRKNSt7__cxx1112basic_stringIcSt11char_traitsIcESaIcEEES6_(ptr dead_on_unwind noalias writable sret(%"struct.std::pair.99") align 8 %0, ptr noundef nonnull align 8 dereferenceable(32) %1, ptr noundef nonnull align 8 dereferenceable(32) %2) #4 {
  %4 = alloca ptr, align 8
  %5 = alloca ptr, align 8
  %6 = alloca ptr, align 8
  %7 = alloca %"struct.std::pair.101", align 8
  store ptr %0, ptr %4, align 8
  store ptr %1, ptr %5, align 8, !tbaa !14
  store ptr %2, ptr %6, align 8, !tbaa !14
  br label %8

8:                                                ; preds = %3
  %9 = load i32, ptr @common_log_verbosity_thold, align 4, !tbaa !3
  %10 = icmp sle i32 0, %9
  br i1 %10, label %11, label %13

11:                                               ; preds = %8
  %12 = call noundef ptr @_Z15common_log_mainv()
  call void (ptr, i32, ptr, ...) @_Z14common_log_addP10common_log14ggml_log_levelPKcz(ptr noundef %12, i32 noundef 3, ptr noundef @.str.66, ptr noundef @__func__._Z18common_get_hf_fileRKNSt7__cxx1112basic_stringIcSt11char_traitsIcESaIcEEES6_)
  br label %13

13:                                               ; preds = %11, %8
  br label %14

14:                                               ; preds = %13
  call void @llvm.lifetime.start.p0(i64 16, ptr %7) #3
  %15 = call { ptr, ptr } @_ZSt9make_pairIRA1_KcS2_ESt4pairINSt25__strip_reference_wrapperINSt5decayIT_E4typeEE6__typeENS4_INS5_IT0_E4typeEE6__typeEEOS6_OSB_(ptr noundef nonnull align 1 dereferenceable(1) @.str.9, ptr noundef nonnull align 1 dereferenceable(1) @.str.9)
  %16 = getelementptr inbounds nuw { ptr, ptr }, ptr %7, i32 0, i32 0
  %17 = extractvalue { ptr, ptr } %15, 0
  store ptr %17, ptr %16, align 8
  %18 = getelementptr inbounds nuw { ptr, ptr }, ptr %7, i32 0, i32 1
  %19 = extractvalue { ptr, ptr } %15, 1
  store ptr %19, ptr %18, align 8
  call void @_ZNSt4pairINSt7__cxx1112basic_stringIcSt11char_traitsIcESaIcEEES5_EC2IPKcS9_TnNSt9enable_ifIXaaclsr6_PCCFPIT_T0_EE22_MoveConstructiblePairISB_SC_EEclsr6_PCCFPISB_SC_EE30_ImplicitlyMoveConvertiblePairISB_SC_EEEbE4typeELb1EEEOS_ISB_SC_E(ptr noundef nonnull align 8 dereferenceable(64) %0, ptr noundef nonnull align 8 dereferenceable(16) %7)
  call void @llvm.lifetime.end.p0(i64 16, ptr %7) #3
  ret void
}