; Function Attrs: mustprogress uwtable
define void @_Z18common_get_hf_fileRKNSt7__cxx1112basic_stringIcSt11char_traitsIcESaIcEEES6_(ptr dead_on_unwind noalias writable sret(%"struct.std::pair.99") align 8 %0, ptr noundef nonnull readnone align 8 captures(none) dereferenceable(32) %1, ptr noundef nonnull readnone align 8 captures(none) dereferenceable(32) %2) local_unnamed_addr #3 {
  %4 = alloca %"struct.std::pair.101", align 8
  %5 = load i32, ptr @common_log_verbosity_thold, align 4, !tbaa !72
  %6 = icmp sgt i32 %5, -1
  br i1 %6, label %7, label %9

7:                                                ; preds = %3
  %8 = tail call noundef ptr @_Z15common_log_mainv()
  tail call void (ptr, i32, ptr, ...) @_Z14common_log_addP10common_log14ggml_log_levelPKcz(ptr noundef %8, i32 noundef 3, ptr noundef nonnull @.str.66, ptr noundef nonnull @__func__._Z18common_get_hf_fileRKNSt7__cxx1112basic_stringIcSt11char_traitsIcESaIcEEES6_)
  br label %9

9:                                                ; preds = %3, %7
  call void @llvm.lifetime.start.p0(i64 16, ptr nonnull %4) #37
  store ptr @.str.9, ptr %4, align 8
  %10 = getelementptr inbounds nuw i8, ptr %4, i64 8
  store ptr @.str.9, ptr %10, align 8
  call void @_ZNSt4pairINSt7__cxx1112basic_stringIcSt11char_traitsIcESaIcEEES5_EC2IPKcS9_TnNSt9enable_ifIXaaclsr6_PCCFPIT_T0_EE22_MoveConstructiblePairISB_SC_EEclsr6_PCCFPISB_SC_EE30_ImplicitlyMoveConvertiblePairISB_SC_EEEbE4typeELb1EEEOS_ISB_SC_E(ptr noundef nonnull align 8 dereferenceable(64) %0, ptr noundef nonnull align 8 dereferenceable(16) %4)
  call void @llvm.lifetime.end.p0(i64 16, ptr nonnull %4) #37
  ret void
}